; Function Attrs: nounwind uwtable
define void @validateVector(ptr noundef readonly byval(%struct.Vector) align 8 captures(none) %0, ptr noundef %1) local_unnamed_addr #3 {
  %3 = tail call double @getVectorMagnitude(ptr noundef nonnull byval(%struct.Vector) align 8 %0) #14
  %4 = fcmp ule double %3, 1.000000e-13
  br i1 %4, label %5, label %QuESTAssert.exit

5:                                                ; preds = %2
  tail call void @invalidQuESTInputError(ptr noundef nonnull @.str.27, ptr noundef %1)
  br label %QuESTAssert.exit

QuESTAssert.exit:                                 ; preds = %2, %5
  ret void
}